target datalayout = "e-m:e-p270:32:32-p271:32:32-p272:64:64-i64:64-i128:128-f80:128-n8:16:32:64-S128"
target triple = "x86_64-unknown-linux-gnu"

%"class.google::protobuf::compiler::Subprocess" = type { i32, i32, i32 }

; Function Attrs: mustprogress nounwind uwtable
define void @_ZN6google8protobuf8compiler10SubprocessC2Ev(ptr noundef nonnull align 4 dereferenceable(12) %this) unnamed_addr #4 align 2 {
entry:
  %this.addr = alloca ptr, align 8
  store ptr %this, ptr %this.addr, align 8
  %this1 = load ptr, ptr %this.addr, align 8
  %child_pid_ = getelementptr inbounds %"class.google::protobuf::compiler::Subprocess", ptr %this1, i32 0, i32 0
  store i32 -1, ptr %child_pid_, align 4
  %child_stdin_ = getelementptr inbounds %"class.google::protobuf::compiler::Subprocess", ptr %this1, i32 0, i32 1
  store i32 -1, ptr %child_stdin_, align 4
  %child_stdout_ = getelementptr inbounds %"class.google::protobuf::compiler::Subprocess", ptr %this1, i32 0, i32 2
  store i32 -1, ptr %child_stdout_, align 4
  ret void
}