; Function Attrs: mustprogress nofree norecurse nosync nounwind willreturn memory(argmem: write) uwtable
define void @_ZN6google8protobuf8compiler10SubprocessC2Ev(ptr noundef nonnull writeonly align 4 captures(none) dereferenceable(12) initializes((0, 12)) %this) unnamed_addr #3 align 2 {
entry:
  store i32 -1, ptr %this, align 4
  %child_stdin_ = getelementptr inbounds nuw i8, ptr %this, i64 4
  store i32 -1, ptr %child_stdin_, align 4
  %child_stdout_ = getelementptr inbounds nuw i8, ptr %this, i64 8
  store i32 -1, ptr %child_stdout_, align 4
  ret void
}